; Function Attrs: mustprogress uwtable
define internal void @"_ZN9grpc_core5Party15ParticipantImplIZNS_5LatchI19grpc_polling_entityE4WaitEvEUlvE_ZNS_12_GLOBAL__N_121MakeServerCallPromiseEPNS_9TransportENS_8CallArgsESt8functionIFNS_12ArenaPromiseISt10unique_ptrI19grpc_metadata_batchNS_5Arena13PooledDeleterEEEES9_EEE3$_5E7DestroyEv"(ptr noundef nonnull align 8 dereferenceable(64) %this) unnamed_addr #3 align 2 personality ptr @__gxx_personality_v0 {
entry:
  %0 = tail call align 8 ptr @llvm.threadlocal.address.p0(ptr align 8 @_ZN9grpc_core14promise_detail7ContextINS_5ArenaEE8current_E)
  %1 = load ptr, ptr %0, align 8
  %cmp.not.i = icmp eq ptr %1, null
  br i1 %cmp.not.i, label %if.then.i, label %_ZN9grpc_core10GetContextINS_5ArenaEEEPT_v.exit

if.then.i:                                        ; preds = %entry
  tail call void @gpr_assertion_failed(ptr noundef nonnull @.str.19, i32 noundef 80, ptr noundef nonnull @.str.20) #25
  unreachable

_ZN9grpc_core10GetContextINS_5ArenaEEEPT_v.exit:  ; preds = %entry
  %2 = getelementptr inbounds i8, ptr %this, i64 48
  %on_complete_.val.i.i = load ptr, ptr %2, align 8
  %cmp.not.i.i.i.i = icmp eq ptr %on_complete_.val.i.i, null
  br i1 %cmp.not.i.i.i.i, label %"_ZN9grpc_core5Arena12DeletePooledINS_5Party15ParticipantImplIZNS_5LatchI19grpc_polling_entityE4WaitEvEUlvE_ZNS_12_GLOBAL__N_121MakeServerCallPromiseEPNS_9TransportENS_8CallArgsESt8functionIFNS_12ArenaPromiseISt10unique_ptrI19grpc_metadata_batchNS0_13PooledDeleterEEEESB_EEE3$_5EEEEvPT_.exit", label %if.then.i.i.i.i

if.then.i.i.i.i:                                  ; preds = %_ZN9grpc_core10GetContextINS_5ArenaEEEPT_v.exit
  %stream_refcount_.i.i.i.i.i = getelementptr inbounds i8, ptr %on_complete_.val.i.i, i64 56
  %3 = atomicrmw sub ptr %stream_refcount_.i.i.i.i.i, i64 1 acq_rel, align 8
  %cmp.i.i.i.i.i.i.i = icmp eq i64 %3, 1
  br i1 %cmp.i.i.i.i.i.i.i, label %if.then.i.i.i.i.i.i, label %"_ZN9grpc_core5Arena12DeletePooledINS_5Party15ParticipantImplIZNS_5LatchI19grpc_polling_entityE4WaitEvEUlvE_ZNS_12_GLOBAL__N_121MakeServerCallPromiseEPNS_9TransportENS_8CallArgsESt8functionIFNS_12ArenaPromiseISt10unique_ptrI19grpc_metadata_batchNS0_13PooledDeleterEEEESB_EEE3$_5EEEEvPT_.exit"

if.then.i.i.i.i.i.i:                              ; preds = %if.then.i.i.i.i
  invoke void @_Z19grpc_stream_destroyP20grpc_stream_refcount(ptr noundef nonnull %stream_refcount_.i.i.i.i.i)
          to label %"_ZN9grpc_core5Arena12DeletePooledINS_5Party15ParticipantImplIZNS_5LatchI19grpc_polling_entityE4WaitEvEUlvE_ZNS_12_GLOBAL__N_121MakeServerCallPromiseEPNS_9TransportENS_8CallArgsESt8functionIFNS_12ArenaPromiseISt10unique_ptrI19grpc_metadata_batchNS0_13PooledDeleterEEEESB_EEE3$_5EEEEvPT_.exit" unwind label %terminate.lpad.i.i.i.i

terminate.lpad.i.i.i.i:                           ; preds = %if.then.i.i.i.i.i.i
  %4 = landingpad { ptr, i32 }
          catch ptr null
  %5 = extractvalue { ptr, i32 } %4, 0
  tail call void @__clang_call_terminate(ptr %5) #24
  unreachable

"_ZN9grpc_core5Arena12DeletePooledINS_5Party15ParticipantImplIZNS_5LatchI19grpc_polling_entityE4WaitEvEUlvE_ZNS_12_GLOBAL__N_121MakeServerCallPromiseEPNS_9TransportENS_8CallArgsESt8functionIFNS_12ArenaPromiseISt10unique_ptrI19grpc_metadata_batchNS0_13PooledDeleterEEEESB_EEE3$_5EEEEvPT_.exit": ; preds = %_ZN9grpc_core10GetContextINS_5ArenaEEEPT_v.exit, %if.then.i.i.i.i, %if.then.i.i.i.i.i.i
  tail call void @_ZN9grpc_core5Party11ParticipantD2Ev(ptr noundef nonnull align 8 dereferenceable(32) %this) #23
  tail call void @_ZdlPv(ptr noundef nonnull %this) #26
  ret void
}